target datalayout = "e-m:e-p270:32:32-p271:32:32-p272:64:64-i64:64-i128:128-f80:128-n8:16:32:64-S128"
target triple = "x86_64-unknown-linux-gnu"

%"struct.OpenImageIO_v2_6_0::ROI" = type { i32, i32, i32, i32, i32, i32, i32, i32 }
%class.anon.182 = type { ptr, ptr }
%"class.OpenImageIO_v2_6_0::ImageBuf::IteratorBase.base" = type <{ ptr, i8, i8, i8, i8, i32, i32, i32, i32, i32, i32, i32, i32, i32, i32, i32, i32, i32, i32, i32, ptr, i32, i32, i32, i32, i32, [4 x i8], i64, ptr, i32, i8 }>
%"class.OpenImageIO_v2_6_0::ImageBuf::IteratorBase" = type <{ ptr, i8, i8, i8, i8, i32, i32, i32, i32, i32, i32, i32, i32, i32, i32, i32, i32, i32, i32, i32, ptr, i32, i32, i32, i32, i32, [4 x i8], i64, ptr, i32, i8, [3 x i8] }>
%"class.OpenImageIO_v2_6_0::ImageBuf::Iterator.183" = type { %"class.OpenImageIO_v2_6_0::ImageBuf::IteratorBase.base", [3 x i8] }

; Function Attrs: mustprogress uwtable
define linkonce_odr void @_ZN18OpenImageIO_v2_6_08ImageBuf12IteratorBaseppEv(ptr noundef nonnull align 8 dereferenceable(125) %this) #6 comdat align 2 {
entry:
  %this.addr = alloca ptr, align 8
  store ptr %this, ptr %this.addr, align 8
  %this1 = load ptr, ptr %this.addr, align 8
  %m_x = getelementptr inbounds %"class.OpenImageIO_v2_6_0::ImageBuf::IteratorBase", ptr %this1, i32 0, i32 17
  %0 = load i32, ptr %m_x, align 4
  %inc = add nsw i32 %0, 1
  store i32 %inc, ptr %m_x, align 4
  %m_rng_xend = getelementptr inbounds %"class.OpenImageIO_v2_6_0::ImageBuf::IteratorBase", ptr %this1, i32 0, i32 12
  %1 = load i32, ptr %m_rng_xend, align 8
  %cmp = icmp slt i32 %inc, %1
  br i1 %cmp, label %if.then, label %if.else

if.then:                                          ; preds = %entry
  %m_exists = getelementptr inbounds %"class.OpenImageIO_v2_6_0::ImageBuf::IteratorBase", ptr %this1, i32 0, i32 2
  %2 = load i8, ptr %m_exists, align 1
  %tobool = trunc i8 %2 to i1
  br i1 %tobool, label %if.then2, label %if.end

if.then2:                                         ; preds = %if.then
  call void @_ZN18OpenImageIO_v2_6_08ImageBuf12IteratorBase9pos_xincrEv(ptr noundef nonnull align 8 dereferenceable(125) %this1)
  br label %return

if.end:                                           ; preds = %if.then
  br label %if.end13

if.else:                                          ; preds = %entry
  %m_rng_xbegin = getelementptr inbounds %"class.OpenImageIO_v2_6_0::ImageBuf::IteratorBase", ptr %this1, i32 0, i32 11
  %3 = load i32, ptr %m_rng_xbegin, align 4
  %m_x3 = getelementptr inbounds %"class.OpenImageIO_v2_6_0::ImageBuf::IteratorBase", ptr %this1, i32 0, i32 17
  store i32 %3, ptr %m_x3, align 4
  %m_y = getelementptr inbounds %"class.OpenImageIO_v2_6_0::ImageBuf::IteratorBase", ptr %this1, i32 0, i32 18
  %4 = load i32, ptr %m_y, align 8
  %inc4 = add nsw i32 %4, 1
  store i32 %inc4, ptr %m_y, align 8
  %m_rng_yend = getelementptr inbounds %"class.OpenImageIO_v2_6_0::ImageBuf::IteratorBase", ptr %this1, i32 0, i32 14
  %5 = load i32, ptr %m_rng_yend, align 8
  %cmp5 = icmp sge i32 %inc4, %5
  br i1 %cmp5, label %if.then6, label %if.end12

if.then6:                                         ; preds = %if.else
  %m_rng_ybegin = getelementptr inbounds %"class.OpenImageIO_v2_6_0::ImageBuf::IteratorBase", ptr %this1, i32 0, i32 13
  %6 = load i32, ptr %m_rng_ybegin, align 4
  %m_y7 = getelementptr inbounds %"class.OpenImageIO_v2_6_0::ImageBuf::IteratorBase", ptr %this1, i32 0, i32 18
  store i32 %6, ptr %m_y7, align 8
  %m_z = getelementptr inbounds %"class.OpenImageIO_v2_6_0::ImageBuf::IteratorBase", ptr %this1, i32 0, i32 19
  %7 = load i32, ptr %m_z, align 4
  %inc8 = add nsw i32 %7, 1
  store i32 %inc8, ptr %m_z, align 4
  %m_rng_zend = getelementptr inbounds %"class.OpenImageIO_v2_6_0::ImageBuf::IteratorBase", ptr %this1, i32 0, i32 16
  %8 = load i32, ptr %m_rng_zend, align 8
  %cmp9 = icmp sge i32 %inc8, %8
  br i1 %cmp9, label %if.then10, label %if.end11

if.then10:                                        ; preds = %if.then6
  %m_valid = getelementptr inbounds %"class.OpenImageIO_v2_6_0::ImageBuf::IteratorBase", ptr %this1, i32 0, i32 1
  store i8 0, ptr %m_valid, align 8
  br label %return

if.end11:                                         ; preds = %if.then6
  br label %if.end12

if.end12:                                         ; preds = %if.end11, %if.else
  br label %if.end13

if.end13:                                         ; preds = %if.end12, %if.end
  %m_x14 = getelementptr inbounds %"class.OpenImageIO_v2_6_0::ImageBuf::IteratorBase", ptr %this1, i32 0, i32 17
  %9 = load i32, ptr %m_x14, align 4
  %m_y15 = getelementptr inbounds %"class.OpenImageIO_v2_6_0::ImageBuf::IteratorBase", ptr %this1, i32 0, i32 18
  %10 = load i32, ptr %m_y15, align 8
  %m_z16 = getelementptr inbounds %"class.OpenImageIO_v2_6_0::ImageBuf::IteratorBase", ptr %this1, i32 0, i32 19
  %11 = load i32, ptr %m_z16, align 4
  call void @_ZN18OpenImageIO_v2_6_08ImageBuf12IteratorBase3posEiii(ptr noundef nonnull align 8 dereferenceable(125) %this1, i32 noundef %9, i32 noundef %10, i32 noundef %11)
  br label %return

return:                                           ; preds = %if.end13, %if.then10, %if.then2
  ret void
}

; Function Attrs: mustprogress nounwind uwtable
define linkonce_odr noundef ptr @_ZNK18OpenImageIO_v2_6_08ImageBuf8IteratorIddE6rawptrEv(ptr noundef nonnull align 8 dereferenceable(125) %this) #4 comdat align 2 {
entry:
  %this.addr = alloca ptr, align 8
  store ptr %this, ptr %this.addr, align 8
  %this1 = load ptr, ptr %this.addr, align 8
  %m_proxydata = getelementptr inbounds %"class.OpenImageIO_v2_6_0::ImageBuf::IteratorBase", ptr %this1, i32 0, i32 28
  %0 = load ptr, ptr %m_proxydata, align 8
  ret ptr %0
}

; Function Attrs: mustprogress nounwind uwtable
define linkonce_odr noundef zeroext i1 @_ZNK18OpenImageIO_v2_6_08ImageBuf12IteratorBase4doneEv(ptr noundef nonnull align 8 dereferenceable(125) %this) #4 comdat align 2 {
entry:
  %this.addr = alloca ptr, align 8
  store ptr %this, ptr %this.addr, align 8
  %this1 = load ptr, ptr %this.addr, align 8
  %m_valid = getelementptr inbounds %"class.OpenImageIO_v2_6_0::ImageBuf::IteratorBase", ptr %this1, i32 0, i32 1
  %0 = load i8, ptr %m_valid, align 8
  %tobool = trunc i8 %0 to i1
  %conv = zext i1 %tobool to i32
  %cmp = icmp eq i32 %conv, 0
  br i1 %cmp, label %land.lhs.true, label %land.end

land.lhs.true:                                    ; preds = %entry
  %m_x = getelementptr inbounds %"class.OpenImageIO_v2_6_0::ImageBuf::IteratorBase", ptr %this1, i32 0, i32 17
  %1 = load i32, ptr %m_x, align 4
  %m_rng_xbegin = getelementptr inbounds %"class.OpenImageIO_v2_6_0::ImageBuf::IteratorBase", ptr %this1, i32 0, i32 11
  %2 = load i32, ptr %m_rng_xbegin, align 4
  %cmp2 = icmp eq i32 %1, %2
  br i1 %cmp2, label %land.lhs.true3, label %land.end

land.lhs.true3:                                   ; preds = %land.lhs.true
  %m_y = getelementptr inbounds %"class.OpenImageIO_v2_6_0::ImageBuf::IteratorBase", ptr %this1, i32 0, i32 18
  %3 = load i32, ptr %m_y, align 8
  %m_rng_ybegin = getelementptr inbounds %"class.OpenImageIO_v2_6_0::ImageBuf::IteratorBase", ptr %this1, i32 0, i32 13
  %4 = load i32, ptr %m_rng_ybegin, align 4
  %cmp4 = icmp eq i32 %3, %4
  br i1 %cmp4, label %land.rhs, label %land.end

land.rhs:                                         ; preds = %land.lhs.true3
  %m_z = getelementptr inbounds %"class.OpenImageIO_v2_6_0::ImageBuf::IteratorBase", ptr %this1, i32 0, i32 19
  %5 = load i32, ptr %m_z, align 4
  %m_rng_zend = getelementptr inbounds %"class.OpenImageIO_v2_6_0::ImageBuf::IteratorBase", ptr %this1, i32 0, i32 16
  %6 = load i32, ptr %m_rng_zend, align 8
  %cmp5 = icmp eq i32 %5, %6
  br label %land.end

land.end:                                         ; preds = %land.rhs, %land.lhs.true3, %land.lhs.true, %entry
  %7 = phi i1 [ false, %land.lhs.true3 ], [ false, %land.lhs.true ], [ false, %entry ], [ %cmp5, %land.rhs ]
  ret i1 %7
}

; Function Attrs: mustprogress uwtable
define linkonce_odr void @_ZN18OpenImageIO_v2_6_08ImageBuf8IteratorIddEC2ERS0_RKNS_3ROIENS0_8WrapModeE(ptr noundef nonnull align 8 dereferenceable(125) %this, ptr noundef nonnull align 8 dereferenceable(16) %ib, ptr noundef nonnull align 4 dereferenceable(32) %roi, i32 noundef %wrap) unnamed_addr #6 comdat align 2 {
entry:
  %this.addr = alloca ptr, align 8
  %ib.addr = alloca ptr, align 8
  %roi.addr = alloca ptr, align 8
  %wrap.addr = alloca i32, align 4
  store ptr %this, ptr %this.addr, align 8
  store ptr %ib, ptr %ib.addr, align 8
  store ptr %roi, ptr %roi.addr, align 8
  store i32 %wrap, ptr %wrap.addr, align 4
  %this1 = load ptr, ptr %this.addr, align 8
  %0 = load ptr, ptr %ib.addr, align 8
  %1 = load ptr, ptr %roi.addr, align 8
  %2 = load i32, ptr %wrap.addr, align 4
  call void @_ZN18OpenImageIO_v2_6_08ImageBuf12IteratorBaseC2ERKS0_RKNS_3ROIENS0_8WrapModeEb(ptr noundef nonnull align 8 dereferenceable(125) %this1, ptr noundef nonnull align 8 dereferenceable(16) %0, ptr noundef nonnull align 4 dereferenceable(32) %1, i32 noundef %2, i1 noundef zeroext true)
  ret void
}

; Function Attrs: mustprogress nounwind uwtable
define linkonce_odr hidden noundef i32 @_ZNK18OpenImageIO_v2_6_03ROI9nchannelsEv(ptr noundef nonnull align 4 dereferenceable(32) %this) #4 comdat align 2 {
entry:
  %this.addr = alloca ptr, align 8
  store ptr %this, ptr %this.addr, align 8
  %this1 = load ptr, ptr %this.addr, align 8
  %chend = getelementptr inbounds %"struct.OpenImageIO_v2_6_0::ROI", ptr %this1, i32 0, i32 7
  %0 = load i32, ptr %chend, align 4
  %chbegin = getelementptr inbounds %"struct.OpenImageIO_v2_6_0::ROI", ptr %this1, i32 0, i32 6
  %1 = load i32, ptr %chbegin, align 4
  %sub = sub nsw i32 %0, %1
  ret i32 %sub
}

; Function Attrs: mustprogress nounwind uwtable
define linkonce_odr hidden noundef double @_ZN18OpenImageIO_v2_6_012convert_typeIfdEET0_RKT_(ptr noundef nonnull align 4 dereferenceable(4) %src) #4 comdat {
entry:
  %src.addr = alloca ptr, align 8
  %scale = alloca double, align 8
  store ptr %src, ptr %src.addr, align 8
  store double 1.000000e+00, ptr %scale, align 8
  %0 = load ptr, ptr %src.addr, align 8
  %1 = load float, ptr %0, align 4
  %conv = fpext float %1 to double
  %2 = load double, ptr %scale, align 8
  %mul = fmul double %conv, %2
  ret double %mul
}

; Function Attrs: mustprogress uwtable
define internal void @_ZZN18OpenImageIO_v2_6_0L11fill_const_IdEEbRNS_8ImageBufEPKfNS_3ROIEiENKUlS5_E_clES5_(ptr noundef nonnull align 8 dereferenceable(16) %this, ptr noundef byval(%"struct.OpenImageIO_v2_6_0::ROI") align 8 %roi) #6 align 2 personality ptr @__gxx_personality_v0 {
entry:
  %this.addr = alloca ptr, align 8
  %tvalues = alloca ptr, align 8
  %i = alloca i32, align 4
  %nchannels = alloca i32, align 4
  %p = alloca %"class.OpenImageIO_v2_6_0::ImageBuf::Iterator.183", align 8
  %exn.slot = alloca ptr, align 8
  %ehselector.slot = alloca i32, align 4
  store ptr %this, ptr %this.addr, align 8
  %this1 = load ptr, ptr %this.addr, align 8
  %chend = getelementptr inbounds %"struct.OpenImageIO_v2_6_0::ROI", ptr %roi, i32 0, i32 7
  %0 = load i32, ptr %chend, align 4
  %cmp = icmp ne i32 %0, 0
  br i1 %cmp, label %cond.true, label %cond.false

cond.true:                                        ; preds = %entry
  %chend2 = getelementptr inbounds %"struct.OpenImageIO_v2_6_0::ROI", ptr %roi, i32 0, i32 7
  %1 = load i32, ptr %chend2, align 4
  %conv = sext i32 %1 to i64
  %mul = mul i64 %conv, 8
  %2 = alloca i8, i64 %mul, align 16
  br label %cond.end

cond.false:                                       ; preds = %entry
  br label %cond.end

cond.end:                                         ; preds = %cond.false, %cond.true
  %cond = phi ptr [ %2, %cond.true ], [ null, %cond.false ]
  store ptr %cond, ptr %tvalues, align 8
  %chbegin = getelementptr inbounds %"struct.OpenImageIO_v2_6_0::ROI", ptr %roi, i32 0, i32 6
  %3 = load i32, ptr %chbegin, align 8
  store i32 %3, ptr %i, align 4
  br label %for.cond

for.cond:                                         ; preds = %for.inc, %cond.end
  %4 = load i32, ptr %i, align 4
  %chend3 = getelementptr inbounds %"struct.OpenImageIO_v2_6_0::ROI", ptr %roi, i32 0, i32 7
  %5 = load i32, ptr %chend3, align 4
  %cmp4 = icmp slt i32 %4, %5
  br i1 %cmp4, label %for.body, label %for.end

for.body:                                         ; preds = %for.cond
  %6 = getelementptr inbounds %class.anon.182, ptr %this1, i32 0, i32 1
  %7 = load ptr, ptr %6, align 8
  %8 = load i32, ptr %i, align 4
  %idxprom = sext i32 %8 to i64
  %arrayidx = getelementptr inbounds float, ptr %7, i64 %idxprom
  %call = call noundef double @_ZN18OpenImageIO_v2_6_012convert_typeIfdEET0_RKT_(ptr noundef nonnull align 4 dereferenceable(4) %arrayidx)
  %9 = load ptr, ptr %tvalues, align 8
  %10 = load i32, ptr %i, align 4
  %idxprom5 = sext i32 %10 to i64
  %arrayidx6 = getelementptr inbounds double, ptr %9, i64 %idxprom5
  store double %call, ptr %arrayidx6, align 8
  br label %for.inc

for.inc:                                          ; preds = %for.body
  %11 = load i32, ptr %i, align 4
  %inc = add nsw i32 %11, 1
  store i32 %inc, ptr %i, align 4
  br label %for.cond, !llvm.loop !164

for.end:                                          ; preds = %for.cond
  %call7 = call noundef i32 @_ZNK18OpenImageIO_v2_6_03ROI9nchannelsEv(ptr noundef nonnull align 4 dereferenceable(32) %roi) #3
  store i32 %call7, ptr %nchannels, align 4
  %12 = getelementptr inbounds %class.anon.182, ptr %this1, i32 0, i32 0
  %13 = load ptr, ptr %12, align 8
  call void @_ZN18OpenImageIO_v2_6_08ImageBuf8IteratorIddEC2ERS0_RKNS_3ROIENS0_8WrapModeE(ptr noundef nonnull align 8 dereferenceable(125) %p, ptr noundef nonnull align 8 dereferenceable(16) %13, ptr noundef nonnull align 4 dereferenceable(32) %roi, i32 noundef 0)
  br label %for.cond8

for.cond8:                                        ; preds = %invoke.cont19, %for.end
  %call9 = call noundef zeroext i1 @_ZNK18OpenImageIO_v2_6_08ImageBuf12IteratorBase4doneEv(ptr noundef nonnull align 8 dereferenceable(125) %p)
  %lnot = xor i1 %call9, true
  br i1 %lnot, label %for.body10, label %for.cond.cleanup

for.cond.cleanup:                                 ; preds = %for.cond8
  call void @_ZN18OpenImageIO_v2_6_08ImageBuf8IteratorIddED2Ev(ptr noundef nonnull align 8 dereferenceable(125) %p) #3
  br label %for.end20

for.body10:                                       ; preds = %for.cond8
  %call11 = invoke noundef ptr @_ZNK18OpenImageIO_v2_6_08ImageBuf8IteratorIddE6rawptrEv(ptr noundef nonnull align 8 dereferenceable(125) %p)
          to label %invoke.cont unwind label %lpad

invoke.cont:                                      ; preds = %for.body10
  %chbegin12 = getelementptr inbounds %"struct.OpenImageIO_v2_6_0::ROI", ptr %roi, i32 0, i32 6
  %14 = load i32, ptr %chbegin12, align 8
  %idx.ext = sext i32 %14 to i64
  %add.ptr = getelementptr inbounds double, ptr %call11, i64 %idx.ext
  %15 = load ptr, ptr %tvalues, align 8
  %chbegin13 = getelementptr inbounds %"struct.OpenImageIO_v2_6_0::ROI", ptr %roi, i32 0, i32 6
  %16 = load i32, ptr %chbegin13, align 8
  %idx.ext14 = sext i32 %16 to i64
  %add.ptr15 = getelementptr inbounds double, ptr %15, i64 %idx.ext14
  %17 = load i32, ptr %nchannels, align 4
  %conv16 = sext i32 %17 to i64
  %mul17 = mul i64 %conv16, 8
  call void @llvm.memcpy.p0.p0.i64(ptr align 8 %add.ptr, ptr align 8 %add.ptr15, i64 %mul17, i1 false)
  br label %for.inc18

for.inc18:                                        ; preds = %invoke.cont
  invoke void @_ZN18OpenImageIO_v2_6_08ImageBuf12IteratorBaseppEv(ptr noundef nonnull align 8 dereferenceable(125) %p)
          to label %invoke.cont19 unwind label %lpad

invoke.cont19:                                    ; preds = %for.inc18
  br label %for.cond8, !llvm.loop !165

lpad:                                             ; preds = %for.inc18, %for.body10
  %18 = landingpad { ptr, i32 }
          cleanup
  %19 = extractvalue { ptr, i32 } %18, 0
  store ptr %19, ptr %exn.slot, align 8
  %20 = extractvalue { ptr, i32 } %18, 1
  store i32 %20, ptr %ehselector.slot, align 4
  call void @_ZN18OpenImageIO_v2_6_08ImageBuf8IteratorIddED2Ev(ptr noundef nonnull align 8 dereferenceable(125) %p) #3
  br label %eh.resume

for.end20:                                        ; preds = %for.cond.cleanup
  ret void

eh.resume:                                        ; preds = %lpad
  %exn = load ptr, ptr %exn.slot, align 8
  %sel = load i32, ptr %ehselector.slot, align 4
  %lpad.val = insertvalue { ptr, i32 } poison, ptr %exn, 0
  %lpad.val21 = insertvalue { ptr, i32 } %lpad.val, i32 %sel, 1
  resume { ptr, i32 } %lpad.val21
}