; Function Attrs: mustprogress uwtable
define internal fastcc void @_ZZN18OpenImageIO_v2_6_0L11fill_const_IdEEbRNS_8ImageBufEPKfNS_3ROIEiENKUlS5_E_clES5_(ptr %this.0.val, ptr nocapture readonly %this.8.val, ptr noundef byval(%"struct.OpenImageIO_v2_6_0::ROI") align 8 %roi) unnamed_addr #5 align 2 personality ptr @__gxx_personality_v0 {
entry:
  %p = alloca %"class.OpenImageIO_v2_6_0::ImageBuf::Iterator.183", align 8
  %chend = getelementptr inbounds i8, ptr %roi, i64 28
  %0 = load i32, ptr %chend, align 4
  %cmp.not = icmp eq i32 %0, 0
  br i1 %cmp.not, label %cond.end, label %cond.true

cond.true:                                        ; preds = %entry
  %conv = sext i32 %0 to i64
  %mul = shl nsw i64 %conv, 3
  %1 = alloca i8, i64 %mul, align 16
  br label %cond.end

cond.end:                                         ; preds = %entry, %cond.true
  %cond = phi ptr [ %1, %cond.true ], [ null, %entry ]
  %chbegin = getelementptr inbounds i8, ptr %roi, i64 24
  %2 = load i32, ptr %chbegin, align 8
  %cmp41 = icmp slt i32 %2, %0
  br i1 %cmp41, label %for.body.preheader, label %for.end

for.body.preheader:                               ; preds = %cond.end
  %3 = sext i32 %2 to i64
  %wide.trip.count = sext i32 %0 to i64
  br label %for.body

for.body:                                         ; preds = %for.body.preheader, %for.body
  %indvars.iv = phi i64 [ %3, %for.body.preheader ], [ %indvars.iv.next, %for.body ]
  %arrayidx = getelementptr inbounds float, ptr %this.8.val, i64 %indvars.iv
  %4 = load float, ptr %arrayidx, align 4
  %conv.i = fpext float %4 to double
  %arrayidx6 = getelementptr inbounds double, ptr %cond, i64 %indvars.iv
  store double %conv.i, ptr %arrayidx6, align 8
  %indvars.iv.next = add nsw i64 %indvars.iv, 1
  %exitcond.not = icmp eq i64 %indvars.iv.next, %wide.trip.count
  br i1 %exitcond.not, label %for.end, label %for.body, !llvm.loop !327

for.end:                                          ; preds = %for.body, %cond.end
  %sub.i = sub nsw i32 %0, %2
  call void @_ZN18OpenImageIO_v2_6_08ImageBuf12IteratorBaseC2ERKS0_RKNS_3ROIENS0_8WrapModeEb(ptr noundef nonnull align 8 dereferenceable(125) %p, ptr noundef nonnull align 8 dereferenceable(16) %this.0.val, ptr noundef nonnull align 4 dereferenceable(32) %roi, i32 noundef 0, i1 noundef zeroext true)
  %m_valid.i = getelementptr inbounds i8, ptr %p, i64 8
  %m_x.i = getelementptr inbounds i8, ptr %p, i64 60
  %m_rng_xbegin.i = getelementptr inbounds i8, ptr %p, i64 36
  %m_y.i = getelementptr inbounds i8, ptr %p, i64 64
  %m_rng_ybegin.i = getelementptr inbounds i8, ptr %p, i64 44
  %m_z.i = getelementptr inbounds i8, ptr %p, i64 68
  %m_rng_zend.i = getelementptr inbounds i8, ptr %p, i64 56
  %m_proxydata.i = getelementptr inbounds i8, ptr %p, i64 112
  %conv16 = sext i32 %sub.i to i64
  %mul17 = shl nsw i64 %conv16, 3
  %m_rng_xend.i = getelementptr inbounds i8, ptr %p, i64 40
  %m_rng_yend.i = getelementptr inbounds i8, ptr %p, i64 48
  %m_exists.i = getelementptr inbounds i8, ptr %p, i64 9
  br label %for.cond8

for.cond8:                                        ; preds = %for.cond8.backedge, %for.end
  %5 = load i8, ptr %m_valid.i, align 8
  %6 = and i8 %5, 1
  %cmp.i = icmp eq i8 %6, 0
  br i1 %cmp.i, label %land.lhs.true.i, label %for.body10

land.lhs.true.i:                                  ; preds = %for.cond8
  %7 = load i32, ptr %m_x.i, align 4
  %8 = load i32, ptr %m_rng_xbegin.i, align 4
  %cmp2.i = icmp eq i32 %7, %8
  br i1 %cmp2.i, label %land.lhs.true3.i, label %for.body10

land.lhs.true3.i:                                 ; preds = %land.lhs.true.i
  %9 = load i32, ptr %m_y.i, align 8
  %10 = load i32, ptr %m_rng_ybegin.i, align 4
  %cmp4.i = icmp eq i32 %9, %10
  br i1 %cmp4.i, label %_ZNK18OpenImageIO_v2_6_08ImageBuf12IteratorBase4doneEv.exit, label %for.body10

_ZNK18OpenImageIO_v2_6_08ImageBuf12IteratorBase4doneEv.exit: ; preds = %land.lhs.true3.i
  %11 = load i32, ptr %m_z.i, align 4
  %12 = load i32, ptr %m_rng_zend.i, align 8
  %cmp5.i = icmp eq i32 %11, %12
  br i1 %cmp5.i, label %for.cond.cleanup, label %for.body10

for.cond.cleanup:                                 ; preds = %_ZNK18OpenImageIO_v2_6_08ImageBuf12IteratorBase4doneEv.exit
  %m_tile.i.i = getelementptr inbounds i8, ptr %p, i64 72
  %13 = load ptr, ptr %m_tile.i.i, align 8
  %tobool.not.i.i = icmp eq ptr %13, null
  br i1 %tobool.not.i.i, label %_ZN18OpenImageIO_v2_6_08ImageBuf8IteratorIddED2Ev.exit, label %if.then.i.i

if.then.i.i:                                      ; preds = %for.cond.cleanup
  invoke void @_ZN18OpenImageIO_v2_6_08ImageBuf12IteratorBase12release_tileEv(ptr noundef nonnull align 8 dereferenceable(125) %p)
          to label %_ZN18OpenImageIO_v2_6_08ImageBuf8IteratorIddED2Ev.exit unwind label %terminate.lpad.i.i

terminate.lpad.i.i:                               ; preds = %if.then.i.i
  %14 = landingpad { ptr, i32 }
          catch ptr null
  %15 = extractvalue { ptr, i32 } %14, 0
  call void @__clang_call_terminate(ptr %15) #25
  unreachable

_ZN18OpenImageIO_v2_6_08ImageBuf8IteratorIddED2Ev.exit: ; preds = %for.cond.cleanup, %if.then.i.i
  ret void

for.body10:                                       ; preds = %for.cond8, %land.lhs.true.i, %land.lhs.true3.i, %_ZNK18OpenImageIO_v2_6_08ImageBuf12IteratorBase4doneEv.exit
  %16 = load ptr, ptr %m_proxydata.i, align 8
  %17 = load i32, ptr %chbegin, align 8
  %idx.ext = sext i32 %17 to i64
  %add.ptr = getelementptr inbounds double, ptr %16, i64 %idx.ext
  %add.ptr15 = getelementptr inbounds double, ptr %cond, i64 %idx.ext
  call void @llvm.memcpy.p0.p0.i64(ptr align 8 %add.ptr, ptr align 8 %add.ptr15, i64 %mul17, i1 false)
  %18 = load i32, ptr %m_x.i, align 4
  %inc.i = add nsw i32 %18, 1
  store i32 %inc.i, ptr %m_x.i, align 4
  %19 = load i32, ptr %m_rng_xend.i, align 8
  %cmp.i6 = icmp slt i32 %inc.i, %19
  br i1 %cmp.i6, label %if.then.i, label %if.else.i

if.then.i:                                        ; preds = %for.body10
  %20 = load i8, ptr %m_exists.i, align 1
  %21 = and i8 %20, 1
  %tobool.not.i = icmp eq i8 %21, 0
  br i1 %tobool.not.i, label %if.then.if.end13_crit_edge.i, label %if.then2.i

if.then.if.end13_crit_edge.i:                     ; preds = %if.then.i
  %.pre.i = load i32, ptr %m_y.i, align 8
  %.pre = load i32, ptr %m_z.i, align 4
  br label %if.end13.i

if.then2.i:                                       ; preds = %if.then.i
  invoke void @_ZN18OpenImageIO_v2_6_08ImageBuf12IteratorBase9pos_xincrEv(ptr noundef nonnull align 8 dereferenceable(125) %p)
          to label %for.cond8.backedge unwind label %lpad

if.else.i:                                        ; preds = %for.body10
  %22 = load i32, ptr %m_rng_xbegin.i, align 4
  store i32 %22, ptr %m_x.i, align 4
  %23 = load i32, ptr %m_y.i, align 8
  %inc4.i = add nsw i32 %23, 1
  store i32 %inc4.i, ptr %m_y.i, align 8
  %24 = load i32, ptr %m_rng_yend.i, align 8
  %cmp5.not.i = icmp slt i32 %inc4.i, %24
  %.pre4 = load i32, ptr %m_z.i, align 4
  br i1 %cmp5.not.i, label %if.end13.i, label %if.then6.i

if.then6.i:                                       ; preds = %if.else.i
  %25 = load i32, ptr %m_rng_ybegin.i, align 4
  store i32 %25, ptr %m_y.i, align 8
  %inc8.i = add nsw i32 %.pre4, 1
  store i32 %inc8.i, ptr %m_z.i, align 4
  %26 = load i32, ptr %m_rng_zend.i, align 8
  %cmp9.not.i = icmp slt i32 %inc8.i, %26
  br i1 %cmp9.not.i, label %if.end13.i, label %if.then10.i

if.then10.i:                                      ; preds = %if.then6.i
  store i8 0, ptr %m_valid.i, align 8
  br label %for.cond8.backedge

if.end13.i:                                       ; preds = %if.then6.i, %if.else.i, %if.then.if.end13_crit_edge.i
  %27 = phi i32 [ %.pre4, %if.else.i ], [ %inc8.i, %if.then6.i ], [ %.pre, %if.then.if.end13_crit_edge.i ]
  %28 = phi i32 [ %inc4.i, %if.else.i ], [ %25, %if.then6.i ], [ %.pre.i, %if.then.if.end13_crit_edge.i ]
  %29 = phi i32 [ %22, %if.else.i ], [ %22, %if.then6.i ], [ %inc.i, %if.then.if.end13_crit_edge.i ]
  invoke void @_ZN18OpenImageIO_v2_6_08ImageBuf12IteratorBase3posEiii(ptr noundef nonnull align 8 dereferenceable(125) %p, i32 noundef %29, i32 noundef %28, i32 noundef %27)
          to label %for.cond8.backedge unwind label %lpad

for.cond8.backedge:                               ; preds = %if.end13.i, %if.then2.i, %if.then10.i
  br label %for.cond8

lpad:                                             ; preds = %if.end13.i, %if.then2.i
  %30 = landingpad { ptr, i32 }
          cleanup
  call void @_ZN18OpenImageIO_v2_6_08ImageBuf8IteratorIddED2Ev(ptr noundef nonnull align 8 dereferenceable(125) %p) #23
  resume { ptr, i32 } %30
}